SF:/Users/lg/lab/tricked/src/triango_rs/src/constants.rs
FN:32,_RNCNvNtCsjPlRVV66sgY_10triango_rs9constants15STANDARD_PIECES0B5_
FNDA:1,_RNCNvNtCsjPlRVV66sgY_10triango_rs9constants15STANDARD_PIECES0B5_
FNF:1
FNH:1
DA:32,1
DA:33,1
DA:34,1
DA:132,1
DA:230,1
DA:328,1
DA:426,1
DA:524,1
DA:622,1
DA:720,1
DA:818,1
DA:916,1
DA:1014,1
DA:1112,1
DA:1211,1
BRF:0
BRH:0
LF:15
LH:15
end_of_record
SF:/Users/lg/lab/tricked/src/triango_rs/src/lib.rs
FN:237,_RNvNtCsjPlRVV66sgY_10triango_rs5testss_16test_refill_tray
FN:168,_RNvNtCsjPlRVV66sgY_10triango_rs5testss_17test_pyo3_methods
FN:133,_RNvNtCsjPlRVV66sgY_10triango_rs5testss_18test_initial_state
FN:183,_RNvNtCsjPlRVV66sgY_10triango_rs5testss_19test_terminal_state
FN:197,_RNvNtCsjPlRVV66sgY_10triango_rs5testss_25test_apply_move_collision
FN:144,_RNvNtCsjPlRVV66sgY_10triango_rs5testss_25test_pyo3_getters_setters
FN:191,_RNvNtCsjPlRVV66sgY_10triango_rs5testss_28test_apply_move_invalid_slot
FN:203,_RNvNtCsjPlRVV66sgY_10triango_rs5testss_30test_apply_move_valid_no_clear
FN:215,_RNvNtCsjPlRVV66sgY_10triango_rs5testss_31test_apply_move_with_line_clear
FN:171,_RNCNvNtCsjPlRVV66sgY_10triango_rs5testss_17test_pyo3_methods0B5_
FN:147,_RNCNvNtCsjPlRVV66sgY_10triango_rs5testss_25test_pyo3_getters_setters0B5_
FN:224,_RNCNvNtCsjPlRVV66sgY_10triango_rs5testss_31test_apply_move_with_line_clear0B5_
FN:68,_RNvMs8_CsjPlRVV66sgY_10triango_rsNtB5_12GameStateExt10apply_move
FN:108,_RNvMs8_CsjPlRVV66sgY_10triango_rsNtB5_12GameStateExt11refill_tray
FN:46,_RNvMs8_CsjPlRVV66sgY_10triango_rsNtB5_12GameStateExt14check_terminal
FN:26,_RNvMs8_CsjPlRVV66sgY_10triango_rsNtB5_12GameStateExt3new
FN:22,_RNvMsa_CsjPlRVV66sgY_10triango_rsNtB5_12GameStateExt24___pymethod_refill_tray__
FN:22,_RNvMsa_CsjPlRVV66sgY_10triango_rsNtB5_12GameStateExt27___pymethod_check_terminal__
FN:36,_RNCNvMs8_CsjPlRVV66sgY_10triango_rsNtB7_12GameStateExt3new0B7_
FNDA:1,_RNvNtCsjPlRVV66sgY_10triango_rs5testss_16test_refill_tray
FNDA:1,_RNvNtCsjPlRVV66sgY_10triango_rs5testss_17test_pyo3_methods
FNDA:1,_RNvNtCsjPlRVV66sgY_10triango_rs5testss_18test_initial_state
FNDA:1,_RNvNtCsjPlRVV66sgY_10triango_rs5testss_19test_terminal_state
FNDA:1,_RNvNtCsjPlRVV66sgY_10triango_rs5testss_25test_apply_move_collision
FNDA:1,_RNvNtCsjPlRVV66sgY_10triango_rs5testss_25test_pyo3_getters_setters
FNDA:1,_RNvNtCsjPlRVV66sgY_10triango_rs5testss_28test_apply_move_invalid_slot
FNDA:1,_RNvNtCsjPlRVV66sgY_10triango_rs5testss_30test_apply_move_valid_no_clear
FNDA:1,_RNvNtCsjPlRVV66sgY_10triango_rs5testss_31test_apply_move_with_line_clear
FNDA:1,_RNCNvNtCsjPlRVV66sgY_10triango_rs5testss_17test_pyo3_methods0B5_
FNDA:1,_RNCNvNtCsjPlRVV66sgY_10triango_rs5testss_25test_pyo3_getters_setters0B5_
FNDA:1,_RNCNvNtCsjPlRVV66sgY_10triango_rs5testss_31test_apply_move_with_line_clear0B5_
FNDA:5,_RNvMs8_CsjPlRVV66sgY_10triango_rsNtB5_12GameStateExt10apply_move
FNDA:3,_RNvMs8_CsjPlRVV66sgY_10triango_rsNtB5_12GameStateExt11refill_tray
FNDA:15,_RNvMs8_CsjPlRVV66sgY_10triango_rsNtB5_12GameStateExt14check_terminal
FNDA:11,_RNvMs8_CsjPlRVV66sgY_10triango_rsNtB5_12GameStateExt3new
FNDA:0,_RNvMsa_CsjPlRVV66sgY_10triango_rsNtB5_12GameStateExt24___pymethod_refill_tray__
FNDA:0,_RNvMsa_CsjPlRVV66sgY_10triango_rsNtB5_12GameStateExt27___pymethod_check_terminal__
FNDA:30,_RNCNvMs8_CsjPlRVV66sgY_10triango_rsNtB7_12GameStateExt3new0B7_
FNF:18
FNH:17
DA:22,0
DA:26,11
DA:27,11
DA:28,11
DA:29,11
DA:30,11
DA:31,11
DA:32,11
DA:33,11
DA:35,11
DA:36,30
DA:37,10
DA:38,10
DA:39,1
DA:40,1
DA:41,1
DA:43,11
DA:44,11
DA:46,15
DA:47,15
DA:48,15
DA:49,13
DA:50,19
DA:51,19
DA:52,2
DA:53,17
DA:54,604
DA:55,604
DA:56,11
DA:57,11
DA:58,593
DA:60,17
DA:61,11
DA:62,6
DA:64,13
DA:65,2
DA:66,15
DA:68,5
DA:69,5
DA:70,5
DA:71,1
DA:72,4
DA:74,4
DA:75,4
DA:76,2
DA:77,2
DA:79,2
DA:80,2
DA:82,2
DA:83,2
DA:85,2
DA:86,2
DA:88,48
DA:89,48
DA:90,1
DA:91,1
DA:92,47
DA:95,2
DA:96,1
DA:97,1
DA:98,1
DA:101,2
DA:102,2
DA:103,2
DA:104,2
DA:105,2
DA:106,5
DA:108,3
DA:109,3
DA:110,3
DA:111,3
DA:112,3
DA:113,3
DA:115,3
DA:116,3
DA:117,3
DA:133,1
DA:134,1
DA:135,1
DA:136,1
DA:137,1
DA:138,1
DA:139,1
DA:140,1
DA:141,1
DA:144,1
DA:146,1
DA:147,1
DA:148,1
DA:149,1
DA:152,1
DA:153,1
DA:154,1
DA:155,1
DA:156,1
DA:159,1
DA:160,1
DA:161,1
DA:162,1
DA:163,1
DA:164,1
DA:165,1
DA:168,1
DA:170,1
DA:171,1
DA:172,1
DA:173,1
DA:176,1
DA:177,1
DA:178,1
DA:179,1
DA:180,1
DA:183,1
DA:184,1
DA:185,1
DA:186,1
DA:187,1
DA:188,1
DA:191,1
DA:192,1
DA:193,1
DA:194,1
DA:197,1
DA:198,1
DA:199,1
DA:200,1
DA:203,1
DA:204,1
DA:206,1
DA:207,1
DA:208,1
DA:209,1
DA:210,1
DA:211,1
DA:212,1
DA:215,1
DA:216,1
DA:217,1
DA:218,1
DA:220,1
DA:222,1
DA:223,1
DA:224,1
DA:225,1
DA:227,1
DA:230,1
DA:232,1
DA:233,1
DA:234,1
DA:237,1
DA:238,1
DA:239,1
DA:240,1
DA:241,1
DA:242,1
BRF:0
BRH:0
LF:159
LH:158
end_of_record
